target datalayout = "e-m:e-p270:32:32-p271:32:32-p272:64:64-i64:64-i128:128-f80:128-n8:16:32:64-S128"
target triple = "x86_64-pc-linux-gnu"

; Function Attrs: alwaysinline nounwind willreturn memory(none) uwtable
define internal zeroext i16 @av_clip_uint16_c(i32 noundef %0) #3 {
  %2 = alloca i16, align 2
  %3 = alloca i32, align 4
  store i32 %0, ptr %3, align 4, !tbaa !9
  %4 = load i32, ptr %3, align 4, !tbaa !9
  %5 = and i32 %4, -65536
  %6 = icmp ne i32 %5, 0
  br i1 %6, label %7, label %12

7:                                                ; preds = %1
  %8 = load i32, ptr %3, align 4, !tbaa !9
  %9 = xor i32 %8, -1
  %10 = ashr i32 %9, 31
  %11 = trunc i32 %10 to i16
  store i16 %11, ptr %2, align 2
  br label %15

12:                                               ; preds = %1
  %13 = load i32, ptr %3, align 4, !tbaa !9
  %14 = trunc i32 %13 to i16
  store i16 %14, ptr %2, align 2
  br label %15

15:                                               ; preds = %12, %7
  %16 = load i16, ptr %2, align 2
  ret i16 %16
}

; Function Attrs: nounwind uwtable
define internal void @remap2_16bit_line_c(ptr noundef %0, i32 noundef %1, ptr noundef %2, i64 noundef %3, ptr noundef %4, ptr noundef %5, ptr noundef %6) #0 {
  %8 = alloca ptr, align 8
  %9 = alloca i32, align 4
  %10 = alloca ptr, align 8
  %11 = alloca i64, align 8
  %12 = alloca ptr, align 8
  %13 = alloca ptr, align 8
  %14 = alloca ptr, align 8
  %15 = alloca ptr, align 8
  %16 = alloca ptr, align 8
  %17 = alloca i32, align 4
  %18 = alloca i32, align 4
  %19 = alloca ptr, align 8
  %20 = alloca ptr, align 8
  %21 = alloca ptr, align 8
  %22 = alloca i32, align 4
  %23 = alloca i32, align 4
  %24 = alloca i32, align 4
  %25 = alloca i32, align 4
  store ptr %0, ptr %8, align 8, !tbaa !18
  store i32 %1, ptr %9, align 4, !tbaa !9
  store ptr %2, ptr %10, align 8, !tbaa !18
  store i64 %3, ptr %11, align 8, !tbaa !19
  store ptr %4, ptr %12, align 8, !tbaa !21
  store ptr %5, ptr %13, align 8, !tbaa !21
  store ptr %6, ptr %14, align 8, !tbaa !21
  call void @llvm.lifetime.start.p0(i64 8, ptr %15) #13
  %26 = load ptr, ptr %10, align 8, !tbaa !18
  store ptr %26, ptr %15, align 8, !tbaa !21
  call void @llvm.lifetime.start.p0(i64 8, ptr %16) #13
  %27 = load ptr, ptr %8, align 8, !tbaa !18
  store ptr %27, ptr %16, align 8, !tbaa !21
  %28 = load i64, ptr %11, align 8, !tbaa !19
  %29 = sdiv i64 %28, 2
  store i64 %29, ptr %11, align 8, !tbaa !19
  call void @llvm.lifetime.start.p0(i64 4, ptr %17) #13
  store i32 0, ptr %17, align 4, !tbaa !9
  br label %30

30:                                               ; preds = %115, %7
  %31 = load i32, ptr %17, align 4, !tbaa !9
  %32 = load i32, ptr %9, align 4, !tbaa !9
  %33 = icmp slt i32 %31, %32
  br i1 %33, label %35, label %34

34:                                               ; preds = %30
  store i32 2, ptr %18, align 4
  call void @llvm.lifetime.end.p0(i64 4, ptr %17) #13
  br label %118

35:                                               ; preds = %30
  call void @llvm.lifetime.start.p0(i64 8, ptr %19) #13
  %36 = load ptr, ptr %12, align 8, !tbaa !21
  %37 = load i32, ptr %17, align 4, !tbaa !9
  %38 = mul nsw i32 %37, 2
  %39 = mul nsw i32 %38, 2
  %40 = sext i32 %39 to i64
  %41 = getelementptr inbounds i16, ptr %36, i64 %40
  store ptr %41, ptr %19, align 8, !tbaa !21
  call void @llvm.lifetime.start.p0(i64 8, ptr %20) #13
  %42 = load ptr, ptr %13, align 8, !tbaa !21
  %43 = load i32, ptr %17, align 4, !tbaa !9
  %44 = mul nsw i32 %43, 2
  %45 = mul nsw i32 %44, 2
  %46 = sext i32 %45 to i64
  %47 = getelementptr inbounds i16, ptr %42, i64 %46
  store ptr %47, ptr %20, align 8, !tbaa !21
  call void @llvm.lifetime.start.p0(i64 8, ptr %21) #13
  %48 = load ptr, ptr %14, align 8, !tbaa !21
  %49 = load i32, ptr %17, align 4, !tbaa !9
  %50 = mul nsw i32 %49, 2
  %51 = mul nsw i32 %50, 2
  %52 = sext i32 %51 to i64
  %53 = getelementptr inbounds i16, ptr %48, i64 %52
  store ptr %53, ptr %21, align 8, !tbaa !21
  call void @llvm.lifetime.start.p0(i64 4, ptr %22) #13
  store i32 0, ptr %22, align 4, !tbaa !9
  call void @llvm.lifetime.start.p0(i64 4, ptr %23) #13
  store i32 0, ptr %23, align 4, !tbaa !9
  br label %54

54:                                               ; preds = %104, %35
  %55 = load i32, ptr %23, align 4, !tbaa !9
  %56 = icmp slt i32 %55, 2
  br i1 %56, label %58, label %57

57:                                               ; preds = %54
  store i32 5, ptr %18, align 4
  call void @llvm.lifetime.end.p0(i64 4, ptr %23) #13
  br label %107

58:                                               ; preds = %54
  call void @llvm.lifetime.start.p0(i64 4, ptr %24) #13
  %59 = load i32, ptr %23, align 4, !tbaa !9
  %60 = mul nsw i32 %59, 2
  store i32 %60, ptr %24, align 4, !tbaa !9
  call void @llvm.lifetime.start.p0(i64 4, ptr %25) #13
  store i32 0, ptr %25, align 4, !tbaa !9
  br label %61

61:                                               ; preds = %100, %58
  %62 = load i32, ptr %25, align 4, !tbaa !9
  %63 = icmp slt i32 %62, 2
  br i1 %63, label %65, label %64

64:                                               ; preds = %61
  store i32 8, ptr %18, align 4
  call void @llvm.lifetime.end.p0(i64 4, ptr %25) #13
  br label %103

65:                                               ; preds = %61
  %66 = load ptr, ptr %21, align 8, !tbaa !21
  %67 = load i32, ptr %24, align 4, !tbaa !9
  %68 = load i32, ptr %25, align 4, !tbaa !9
  %69 = add nsw i32 %67, %68
  %70 = sext i32 %69 to i64
  %71 = getelementptr inbounds i16, ptr %66, i64 %70
  %72 = load i16, ptr %71, align 2, !tbaa !23
  %73 = sext i16 %72 to i32
  %74 = load ptr, ptr %15, align 8, !tbaa !21
  %75 = load ptr, ptr %20, align 8, !tbaa !21
  %76 = load i32, ptr %24, align 4, !tbaa !9
  %77 = load i32, ptr %25, align 4, !tbaa !9
  %78 = add nsw i32 %76, %77
  %79 = sext i32 %78 to i64
  %80 = getelementptr inbounds i16, ptr %75, i64 %79
  %81 = load i16, ptr %80, align 2, !tbaa !23
  %82 = sext i16 %81 to i64
  %83 = load i64, ptr %11, align 8, !tbaa !19
  %84 = mul nsw i64 %82, %83
  %85 = load ptr, ptr %19, align 8, !tbaa !21
  %86 = load i32, ptr %24, align 4, !tbaa !9
  %87 = load i32, ptr %25, align 4, !tbaa !9
  %88 = add nsw i32 %86, %87
  %89 = sext i32 %88 to i64
  %90 = getelementptr inbounds i16, ptr %85, i64 %89
  %91 = load i16, ptr %90, align 2, !tbaa !23
  %92 = sext i16 %91 to i64
  %93 = add nsw i64 %84, %92
  %94 = getelementptr inbounds i16, ptr %74, i64 %93
  %95 = load i16, ptr %94, align 2, !tbaa !23
  %96 = zext i16 %95 to i32
  %97 = mul nsw i32 %73, %96
  %98 = load i32, ptr %22, align 4, !tbaa !9
  %99 = add nsw i32 %98, %97
  store i32 %99, ptr %22, align 4, !tbaa !9
  br label %100

100:                                              ; preds = %65
  %101 = load i32, ptr %25, align 4, !tbaa !9
  %102 = add nsw i32 %101, 1
  store i32 %102, ptr %25, align 4, !tbaa !9
  br label %61, !llvm.loop !32

103:                                              ; preds = %64
  call void @llvm.lifetime.end.p0(i64 4, ptr %24) #13
  br label %104

104:                                              ; preds = %103
  %105 = load i32, ptr %23, align 4, !tbaa !9
  %106 = add nsw i32 %105, 1
  store i32 %106, ptr %23, align 4, !tbaa !9
  br label %54, !llvm.loop !33

107:                                              ; preds = %57
  %108 = load i32, ptr %22, align 4, !tbaa !9
  %109 = ashr i32 %108, 14
  %110 = call zeroext i16 @av_clip_uint16_c(i32 noundef %109) #14
  %111 = load ptr, ptr %16, align 8, !tbaa !21
  %112 = load i32, ptr %17, align 4, !tbaa !9
  %113 = sext i32 %112 to i64
  %114 = getelementptr inbounds i16, ptr %111, i64 %113
  store i16 %110, ptr %114, align 2, !tbaa !23
  call void @llvm.lifetime.end.p0(i64 4, ptr %22) #13
  call void @llvm.lifetime.end.p0(i64 8, ptr %21) #13
  call void @llvm.lifetime.end.p0(i64 8, ptr %20) #13
  call void @llvm.lifetime.end.p0(i64 8, ptr %19) #13
  br label %115

115:                                              ; preds = %107
  %116 = load i32, ptr %17, align 4, !tbaa !9
  %117 = add nsw i32 %116, 1
  store i32 %117, ptr %17, align 4, !tbaa !9
  br label %30, !llvm.loop !34

118:                                              ; preds = %34
  call void @llvm.lifetime.end.p0(i64 8, ptr %16) #13
  call void @llvm.lifetime.end.p0(i64 8, ptr %15) #13
  ret void
}