; Function Attrs: nofree norecurse nosync nounwind memory(argmem: readwrite) uwtable
define internal void @remap2_16bit_line_c(ptr noundef writeonly captures(none) %0, i32 noundef %1, ptr noundef readonly captures(none) %2, i64 noundef %3, ptr noundef readonly captures(none) %4, ptr noundef readonly captures(none) %5, ptr noundef readonly captures(none) %6) #1 {
  %8 = sdiv i64 %3, 2
  %9 = icmp sgt i32 %1, 0
  br i1 %9, label %.lr.ph.preheader, label %._crit_edge

.lr.ph.preheader:                                 ; preds = %7
  %wide.trip.count = zext nneg i32 %1 to i64
  br label %.lr.ph

._crit_edge:                                      ; preds = %14, %7
  ret void

.lr.ph:                                           ; preds = %.lr.ph.preheader, %14
  %indvars.iv43 = phi i64 [ 0, %.lr.ph.preheader ], [ %indvars.iv.next44, %14 ]
  %10 = shl nsw i64 %indvars.iv43, 2
  %11 = getelementptr inbounds nuw i16, ptr %4, i64 %10
  %12 = getelementptr inbounds nuw i16, ptr %5, i64 %10
  %13 = getelementptr inbounds nuw i16, ptr %6, i64 %10
  br label %19

14:                                               ; preds = %21
  %15 = ashr i32 %40, 14
  %.not.i = icmp ult i32 %15, 65536
  %isnotneg.i = icmp sgt i32 %15, -1
  %16 = sext i1 %isnotneg.i to i16
  %17 = trunc nuw i32 %15 to i16
  %.0.i = select i1 %.not.i, i16 %17, i16 %16
  %18 = getelementptr inbounds nuw i16, ptr %0, i64 %indvars.iv43
  store i16 %.0.i, ptr %18, align 2, !tbaa !15
  %indvars.iv.next44 = add nuw nsw i64 %indvars.iv43, 1
  %exitcond.not = icmp eq i64 %indvars.iv.next44, %wide.trip.count
  br i1 %exitcond.not, label %._crit_edge, label %.lr.ph, !llvm.loop !24

19:                                               ; preds = %.lr.ph, %21
  %20 = phi i1 [ true, %.lr.ph ], [ false, %21 ]
  %indvars.iv40 = phi i64 [ 0, %.lr.ph ], [ 2, %21 ]
  %.03236 = phi i32 [ 0, %.lr.ph ], [ %40, %21 ]
  br label %22

21:                                               ; preds = %22
  br i1 %20, label %19, label %14, !llvm.loop !25

22:                                               ; preds = %19, %22
  %23 = phi i1 [ true, %19 ], [ false, %22 ]
  %indvars.iv = phi i64 [ 0, %19 ], [ 1, %22 ]
  %.134 = phi i32 [ %.03236, %19 ], [ %40, %22 ]
  %24 = or disjoint i64 %indvars.iv, %indvars.iv40
  %25 = getelementptr inbounds nuw i16, ptr %13, i64 %24
  %26 = load i16, ptr %25, align 2, !tbaa !15
  %27 = sext i16 %26 to i32
  %28 = getelementptr inbounds nuw i16, ptr %12, i64 %24
  %29 = load i16, ptr %28, align 2, !tbaa !15
  %30 = sext i16 %29 to i64
  %31 = mul nsw i64 %8, %30
  %32 = getelementptr inbounds nuw i16, ptr %11, i64 %24
  %33 = load i16, ptr %32, align 2, !tbaa !15
  %34 = sext i16 %33 to i64
  %35 = getelementptr i16, ptr %2, i64 %31
  %36 = getelementptr i16, ptr %35, i64 %34
  %37 = load i16, ptr %36, align 2, !tbaa !15
  %38 = zext i16 %37 to i32
  %39 = mul nsw i32 %38, %27
  %40 = add nsw i32 %39, %.134
  br i1 %23, label %22, label %21, !llvm.loop !26
}